target datalayout = "e-m:e-p270:32:32-p271:32:32-p272:64:64-i64:64-i128:128-f80:128-n8:16:32:64-S128"
target triple = "x86_64-pc-linux-gnu"

%struct.CommonQuantParams = type { i32, i32, i32, i32, i32, i32, [8 x [2 x i16]], [8 x [2 x i16]], [8 x [2 x i16]], [16 x [3 x [19 x ptr]]], [16 x [3 x [19 x ptr]]], [8 x [19 x ptr]], [8 x [19 x ptr]], [8 x [19 x ptr]], i8, i32, i32, i32 }
%struct.macroblockd = type { i32, i32, i32, i8, [3 x %struct.macroblockd_plane], %struct.TileInfo, ptr, i8, i8, i8, i8, ptr, ptr, ptr, ptr, ptr, i32, i32, i32, i32, i32, [2 x ptr], ptr, [3 x ptr], [3 x [32 x i8]], ptr, [32 x i8], ptr, ptr, [32 x i8], [3 x %struct.WienerInfo], [3 x %struct.SgrprojInfo], i8, i8, [29 x [8 x %struct.candidate_mv]], [29 x [8 x i16]], i8, i8, [8 x i8], ptr, i32, [8 x i32], [8 x i32], i32, i32, ptr, ptr, i8, [4 x i8], [4 x i8], [7 x i8], [32768 x i8], %struct.cfl_ctx, [2 x i16], ptr, [2 x ptr] }
%struct.macroblockd_plane = type { i8, i32, i32, %struct.buf_2d, [2 x %struct.buf_2d], ptr, ptr, [8 x [2 x i16]], ptr, i8, i8, [8 x [19 x ptr]], [8 x [19 x ptr]] }
%struct.buf_2d = type { ptr, ptr, i32, i32, i32 }
%struct.TileInfo = type { i32, i32, i32, i32, i32, i32 }
%struct.WienerInfo = type { [8 x i16], [8 x i16] }
%struct.SgrprojInfo = type { i32, [2 x i32] }
%struct.candidate_mv = type { %union.int_mv, %union.int_mv }
%union.int_mv = type { i32 }
%struct.cfl_ctx = type { [1024 x i16], [1024 x i16], [2 x i32], i32, [2 x [32 x i16]], i32, i32, i32, i32, i32, i32 }
%struct.MB_MODE_INFO = type <{ i8, i8, i8, i8, i32, [2 x %union.int_mv], [2 x i8], [2 x i8], %union.int_interpfilters, i8, i8, i8, i8, %struct.WarpedMotionParams, i8, i8, [6 x i8], %struct.INTERINTER_COMPOUND_DATA, [2 x i8], %struct.FILTER_INTRA_MODE_INFO, i8, i8, %struct.PALETTE_MODE_INFO, i8, i8, [16 x i8], i8, [4 x i8], i16, [7 x i8] }>
%union.int_interpfilters = type { i32 }
%struct.WarpedMotionParams = type { [8 x i32], i16, i16, i16, i16, i8, i8 }
%struct.INTERINTER_COMPOUND_DATA = type { ptr, i8, i8, i8, i8 }
%struct.FILTER_INTRA_MODE_INFO = type { i8, i8 }
%struct.PALETTE_MODE_INFO = type { [24 x i16], [2 x i8] }

; Function Attrs: nounwind uwtable
define internal zeroext i1 @is_2d_transform(i8 noundef zeroext %0) #0 {
  %2 = alloca i8, align 1
  store i8 %0, ptr %2, align 1
  %3 = load i8, ptr %2, align 1
  %4 = zext i8 %3 to i32
  %5 = icmp slt i32 %4, 9
  ret i1 %5
}

; Function Attrs: nounwind uwtable
define internal zeroext i8 @av1_get_adjusted_tx_size(i8 noundef zeroext %0) #0 {
  %2 = alloca i8, align 1
  %3 = alloca i8, align 1
  store i8 %0, ptr %3, align 1
  %4 = load i8, ptr %3, align 1
  %5 = zext i8 %4 to i32
  switch i32 %5, label %9 [
    i32 4, label %6
    i32 12, label %6
    i32 11, label %6
    i32 18, label %7
    i32 17, label %8
  ]

6:                                                ; preds = %1, %1, %1
  store i8 3, ptr %2, align 1
  br label %11

7:                                                ; preds = %1
  store i8 10, ptr %2, align 1
  br label %11

8:                                                ; preds = %1
  store i8 9, ptr %2, align 1
  br label %11

9:                                                ; preds = %1
  %10 = load i8, ptr %3, align 1
  store i8 %10, ptr %2, align 1
  br label %11

11:                                               ; preds = %9, %8, %7, %6
  %12 = load i8, ptr %2, align 1
  ret i8 %12
}

; Function Attrs: nounwind uwtable
define hidden ptr @av1_get_iqmatrix(ptr noundef %0, ptr noundef %1, i32 noundef %2, i8 noundef zeroext %3, i8 noundef zeroext %4) #0 {
  %6 = alloca ptr, align 8
  %7 = alloca ptr, align 8
  %8 = alloca i32, align 4
  %9 = alloca i8, align 1
  %10 = alloca i8, align 1
  %11 = alloca ptr, align 8
  %12 = alloca ptr, align 8
  %13 = alloca i32, align 4
  %14 = alloca i8, align 1
  store ptr %0, ptr %6, align 8
  store ptr %1, ptr %7, align 8
  store i32 %2, ptr %8, align 4
  store i8 %3, ptr %9, align 1
  store i8 %4, ptr %10, align 1
  %15 = load ptr, ptr %7, align 8
  %16 = getelementptr inbounds nuw %struct.macroblockd, ptr %15, i32 0, i32 4
  %17 = load i32, ptr %8, align 4
  %18 = sext i32 %17 to i64
  %19 = getelementptr inbounds [3 x %struct.macroblockd_plane], ptr %16, i64 0, i64 %18
  store ptr %19, ptr %11, align 8
  %20 = load ptr, ptr %7, align 8
  %21 = getelementptr inbounds nuw %struct.macroblockd, ptr %20, i32 0, i32 6
  %22 = load ptr, ptr %21, align 8
  %23 = getelementptr inbounds ptr, ptr %22, i64 0
  %24 = load ptr, ptr %23, align 8
  store ptr %24, ptr %12, align 8
  %25 = load ptr, ptr %12, align 8
  %26 = getelementptr inbounds nuw %struct.MB_MODE_INFO, ptr %25, i32 0, i32 28
  %27 = load i16, ptr %26, align 1
  %28 = and i16 %27, 7
  %29 = trunc i16 %28 to i8
  %30 = zext i8 %29 to i32
  store i32 %30, ptr %13, align 4
  %31 = load i8, ptr %9, align 1
  %32 = call zeroext i8 @av1_get_adjusted_tx_size(i8 noundef zeroext %31)
  store i8 %32, ptr %14, align 1
  %33 = load i8, ptr %10, align 1
  %34 = call zeroext i1 @is_2d_transform(i8 noundef zeroext %33)
  br i1 %34, label %35, label %45

35:                                               ; preds = %5
  %36 = load ptr, ptr %11, align 8
  %37 = getelementptr inbounds nuw %struct.macroblockd_plane, ptr %36, i32 0, i32 11
  %38 = load i32, ptr %13, align 4
  %39 = sext i32 %38 to i64
  %40 = getelementptr inbounds [8 x [19 x ptr]], ptr %37, i64 0, i64 %39
  %41 = load i8, ptr %14, align 1
  %42 = zext i8 %41 to i64
  %43 = getelementptr inbounds [19 x ptr], ptr %40, i64 0, i64 %42
  %44 = load ptr, ptr %43, align 8
  br label %54

45:                                               ; preds = %5
  %46 = load ptr, ptr %6, align 8
  %47 = getelementptr inbounds nuw %struct.CommonQuantParams, ptr %46, i32 0, i32 9
  %48 = getelementptr inbounds [16 x [3 x [19 x ptr]]], ptr %47, i64 0, i64 15
  %49 = getelementptr inbounds [3 x [19 x ptr]], ptr %48, i64 0, i64 0
  %50 = load i8, ptr %14, align 1
  %51 = zext i8 %50 to i64
  %52 = getelementptr inbounds [19 x ptr], ptr %49, i64 0, i64 %51
  %53 = load ptr, ptr %52, align 8
  br label %54

54:                                               ; preds = %45, %35
  %55 = phi ptr [ %44, %35 ], [ %53, %45 ]
  ret ptr %55
}