; Function Attrs: mustprogress nofree norecurse nosync nounwind willreturn memory(read, inaccessiblemem: none) uwtable
define hidden ptr @av1_get_iqmatrix(ptr nocapture noundef readonly %0, ptr nocapture noundef readonly %1, i32 noundef %2, i8 noundef zeroext %3, i8 noundef zeroext %4) local_unnamed_addr #2 {
  %6 = getelementptr inbounds nuw i8, ptr %1, i64 7864
  %7 = load ptr, ptr %6, align 8
  %8 = load ptr, ptr %7, align 8
  %9 = getelementptr inbounds nuw i8, ptr %8, i64 175
  %10 = load i16, ptr %9, align 1
  switch i8 %3, label %13 [
    i8 4, label %av1_get_adjusted_tx_size.exit
    i8 12, label %av1_get_adjusted_tx_size.exit
    i8 11, label %av1_get_adjusted_tx_size.exit
    i8 18, label %11
    i8 17, label %12
  ]

11:                                               ; preds = %5
  br label %av1_get_adjusted_tx_size.exit

12:                                               ; preds = %5
  br label %av1_get_adjusted_tx_size.exit

13:                                               ; preds = %5
  %14 = zext i8 %3 to i64
  br label %av1_get_adjusted_tx_size.exit

av1_get_adjusted_tx_size.exit:                    ; preds = %5, %5, %5, %11, %12, %13
  %.0.i = phi i64 [ %14, %13 ], [ 9, %12 ], [ 10, %11 ], [ 3, %5 ], [ 3, %5 ], [ 3, %5 ]
  %15 = icmp ult i8 %4, 9
  %16 = and i16 %10, 7
  %17 = getelementptr inbounds nuw i8, ptr %1, i64 16
  %18 = sext i32 %2 to i64
  %19 = zext nneg i16 %16 to i64
  %20 = getelementptr inbounds [3 x %struct.macroblockd_plane], ptr %17, i64 0, i64 %18, i32 11, i64 %19, i64 %.0.i
  %21 = getelementptr inbounds i8, ptr %0, i64 6960
  %22 = getelementptr inbounds [19 x ptr], ptr %21, i64 0, i64 %.0.i
  %.in = select i1 %15, ptr %20, ptr %22
  %23 = load ptr, ptr %.in, align 8
  ret ptr %23
}